Certificate:
    Data:
        Version: 3 (0x2)
        Serial Number: 4 (0x4)
        Signature Algorithm: sha256WithRSAEncryption
        Issuer: C=CN, ST=BJ, L=BJ, O=snow, CN=ll
        Validity
            Not Before: Mar 19 07:14:19 2024 GMT
            Not After : Mar 17 07:14:19 2034 GMT
        Subject: C=CN, ST=BJ, O=snow, CN=ll
        Subject Public Key Info:
            Public Key Algorithm: rsaEncryption
                RSA Public-Key: (2048 bit)
                Modulus:
                    00:ac:89:9a:ee:d6:5d:73:d4:70:d7:dc:76:9e:95:
                    98:c5:b5:2b:d3:70:30:c5:a8:7d:13:2e:72:f3:db:
                    e6:65:f9:00:fe:02:10:82:ee:82:77:86:06:74:4b:
                    76:8c:fa:8a:c8:93:bb:21:69:ad:8c:24:30:64:a1:
                    bf:6c:1f:02:2a:d5:a8:1d:41:2b:4f:f7:fd:ec:b6:
                    e1:d6:24:b4:5e:f9:0e:6b:a3:60:7f:de:f3:2e:20:
                    78:9d:08:69:73:a6:3e:d9:9a:73:0c:19:44:37:b1:
                    f6:35:00:c3:c5:11:ae:fa:ac:6c:6f:8e:60:35:d6:
                    e5:5a:67:99:ff:c3:4b:34:63:4a:5a:8b:fc:eb:8a:
                    cf:03:05:a3:68:ac:f5:68:43:74:d8:f1:98:a2:3a:
                    02:e8:68:c2:1b:0a:ec:9c:eb:93:18:5b:36:bb:2c:
                    76:10:a7:d6:23:3c:a4:05:1a:6c:29:17:bb:6b:f5:
                    31:5e:fd:8c:50:a1:e8:21:5a:9e:23:81:d2:fb:48:
                    36:46:17:f6:88:f5:c9:6e:d6:fb:a9:30:11:f7:24:
                    2d:e0:ff:35:49:5e:22:ad:df:e5:c2:89:59:44:4c:
                    51:c1:c5:59:56:82:92:9a:fa:2f:93:35:c3:ad:1a:
                    58:f9:53:fd:95:bf:83:64:77:00:95:31:f2:33:7e:
                    d5:d5
                Exponent: 65537 (0x10001)
        X509v3 extensions:
            X509v3 Basic Constraints: 
                CA:FALSE
            Netscape Comment: 
                OpenSSL Generated Certificate
            X509v3 Subject Key Identifier: 
                58:22:94:23:C4:83:B3:F7:26:A2:1A:5A:33:8B:F7:E0:85:75:83:11
            X509v3 Authority Key Identifier: 
                DirName:/C=CN/ST=BJ/L=BJ/O=snow/CN=ll
                serial:44:B2:75:3D:FA:F4:36:98:BE:10:25:17:33:32:92:AA:73:A1:EB:DA

    Signature Algorithm: sha256WithRSAEncryption
         99:f2:86:a2:af:f2:43:75:0a:9f:e6:e4:81:d2:ce:16:a0:72:
         84:72:09:b7:65:4e:8a:05:ee:1a:ec:78:de:f6:ca:73:2d:d7:
         37:30:ef:d2:3f:35:19:09:c5:b9:5b:86:a5:e3:40:4b:27:2f:
         16:a4:5d:da:41:7f:4a:7f:9e:ed:7a:d0:3a:df:b1:8e:48:38:
         d1:9c:5a:3f:5f:df:42:31:90:f1:59:77:a0:ce:01:4b:2b:ae:
         a9:b3:33:49:5a:94:3d:21:3e:cd:8c:39:31:ee:0a:74:ae:3a:
         87:df:d2:8a:bc:da:ed:40:fe:7e:13:27:ae:41:8d:1d:1e:ea:
         5f:44:e8:e9:d8:33:18:aa:20:9f:3c:6b:61:2a:2f:17:e1:3e:
         a5:23:a0:80:0e:41:60:5c:a5:92:2e:1d:88:ab:fb:f6:df:76:
         e6:85:f5:be:65:64:6e:42:d3:66:d6:d7:5f:9c:c0:82:b2:3c:
         30:f9:8a:28:7d:ce:42:87:7b:72:24:16:f1:c9:b3:a3:ca:39:
         11:b6:6d:6f:27:db:23:7c:17:46:30:7b:1b:ea:b8:07:94:bf:
         2f:e2:ac:8e:9f:f9:98:bc:31:c3:b6:c6:ee:65:69:93:c7:a2:
         cf:b5:de:13:37:f3:8f:8b:2e:7e:d8:48:de:1b:56:cd:fb:1a:
         d8:19:88:e1
-----BEGIN CERTIFICATE-----
MIIDujCCAqKgAwIBAgIBBDANBgkqhkiG9w0BAQsFADBDMQswCQYDVQQGEwJDTjEL
MAkGA1UECAwCQkoxCzAJBgNVBAcMAkJKMQ0wCwYDVQQKDARzbm93MQswCQYDVQQD
DAJsbDAeFw0yNDAzMTkwNzE0MTlaFw0zNDAzMTcwNzE0MTlaMDYxCzAJBgNVBAYT
AkNOMQswCQYDVQQIDAJCSjENMAsGA1UECgwEc25vdzELMAkGA1UEAwwCbGwwggEi
MA0GCSqGSIb3DQEBAQUAA4IBDwAwggEKAoIBAQCsiZru1l1z1HDX3HaelZjFtSvT
cDDFqH0TLnLz2+Zl+QD+AhCC7oJ3hgZ0S3aM+orIk7shaa2MJDBkob9sHwIq1agd
QStP9/3stuHWJLRe+Q5ro2B/3vMuIHidCGlzpj7ZmnMMGUQ3sfY1AMPFEa76rGxv
jmA11uVaZ5n/w0s0Y0pai/zris8DBaNorPVoQ3TY8ZiiOgLoaMIbCuyc65MYWza7
LHYQp9YjPKQFGmwpF7tr9TFe/YxQoeghWp4jgdL7SDZGF/aI9clu1vupMBH3JC3g
/zVJXiKt3+XCiVlETFHBxVlWgpKa+i+TNcOtGlj5U/2Vv4NkdwCVMfIzftXVAgMB
AAGjgcUwgcIwCQYDVR0TBAIwADAsBglghkgBhvhCAQ0EHxYdT3BlblNTTCBHZW5l
cmF0ZWQgQ2VydGlmaWNhdGUwHQYDVR0OBBYEFFgilCPEg7P3JqIaWjOL9+CFdYMR
MGgGA1UdIwRhMF+hR6RFMEMxCzAJBgNVBAYTAkNOMQswCQYDVQQIDAJCSjELMAkG
A1UEBwwCQkoxDTALBgNVBAoMBHNub3cxCzAJBgNVBAMMAmxsghREsnU9+vQ2mL4Q
JRczMpKqc6Hr2jANBgkqhkiG9w0BAQsFAAOCAQEAmfKGoq/yQ3UKn+bkgdLOFqBy
hHIJt2VOigXuGux43vbKcy3XNzDv0j81GQnFuVuGpeNASycvFqRd2kF/Sn+e7XrQ
Ot+xjkg40ZxaP1/fQjGQ8Vl3oM4BSyuuqbMzSVqUPSE+zYw5Me4KdK46h9/Sirza
7UD+fhMnrkGNHR7qX0To6dgzGKognzxrYSovF+E+pSOggA5BYFylki4diKv79t92
5oX1vmVkbkLTZtbXX5zAgrI8MPmKKH3OQod7ciQW8cmzo8o5EbZtbyfbI3wXRjB7
G+q4B5S/L+Ksjp/5mLwxw7bG7mVpk8eiz7XeEzfzj4sufthI3htWzfsa2BmI4Q==
-----END CERTIFICATE-----
