Certificate:
    Data:
        Version: 3 (0x2)
        Serial Number: 3 (0x3)
        Signature Algorithm: sha256WithRSAEncryption
        Issuer: C=CN, L=Default City, O=Default Company Ltd, CN=127.0.0.1
        Validity
            Not Before: Mar 19 07:05:09 2024 GMT
            Not After : Mar 17 07:05:09 2034 GMT
        Subject: C=CN, O=ll, CN=127.0.0.1
        Subject Public Key Info:
            Public Key Algorithm: rsaEncryption
                RSA Public-Key: (2048 bit)
                Modulus:
                    00:d8:94:2c:da:e4:c1:05:93:fc:a6:0f:92:8d:d0:
                    b7:e6:34:51:23:25:b1:2b:f6:2c:f2:fc:9b:d7:f7:
                    19:87:d3:2b:34:5c:2b:0b:0b:92:48:71:69:e3:89:
                    a2:41:ec:04:53:3a:b6:e6:fd:73:31:3c:f7:bf:94:
                    4f:6d:56:91:75:7a:b9:a4:08:48:9d:e4:6c:17:6b:
                    b5:a1:a5:09:78:99:70:c2:86:8c:48:59:00:bb:c7:
                    b2:de:da:07:c7:a1:8e:47:a9:d7:ed:8c:ff:07:3c:
                    2f:e2:69:f7:3f:9d:fa:8a:12:01:9f:b2:3c:2d:9e:
                    98:f2:15:47:a7:af:c2:97:65:55:a7:f8:11:e0:ae:
                    9d:c6:b2:84:ca:a8:2b:e9:48:aa:cd:ae:5e:97:f5:
                    de:da:9f:18:d0:fe:d6:48:52:1e:fb:b7:0b:f3:a3:
                    4b:c2:d7:e3:4b:52:a6:57:a0:3d:2c:ee:81:de:44:
                    b0:1b:ee:fa:ac:a1:17:3a:34:0a:a3:a4:ef:60:da:
                    ad:e4:d6:c4:c6:31:89:16:36:b4:2d:06:4f:5a:52:
                    bc:07:89:2b:08:16:85:d9:04:33:da:05:be:58:b5:
                    17:03:ff:14:48:f5:1f:58:49:69:b3:33:fe:52:94:
                    36:1f:76:8c:35:ad:8f:8a:23:fb:50:23:85:18:97:
                    73:d9
                Exponent: 65537 (0x10001)
        X509v3 extensions:
            X509v3 Basic Constraints: 
                CA:FALSE
            Netscape Comment: 
                OpenSSL Generated Certificate
            X509v3 Subject Key Identifier: 
                54:09:A9:B1:47:7F:2F:54:25:B6:DB:51:E2:3B:80:3B:CE:B1:74:D9
            X509v3 Authority Key Identifier: 
                DirName:/C=CN/L=Default City/O=Default Company Ltd/CN=127.0.0.1
                serial:6F:49:0F:FF:42:A2:D5:11:7D:4F:C7:9C:09:58:F7:21:FE:4C:07:3C

    Signature Algorithm: sha256WithRSAEncryption
         3f:93:1f:26:ef:f5:79:8d:25:63:7d:8a:04:e6:17:f9:98:d4:
         95:27:10:7d:1a:2a:8d:8f:a4:22:5f:58:4d:05:f9:a3:fc:b9:
         d7:92:00:6f:e1:8c:62:90:77:be:3a:40:f2:1a:7c:c0:8c:34:
         b6:f1:50:5e:2a:f1:f0:68:f4:7e:9b:a8:e5:84:f5:01:ca:56:
         61:61:20:7e:75:b3:51:6b:0f:69:6b:c6:89:12:eb:ec:7b:89:
         3f:f6:be:5d:59:b3:6b:e5:be:27:63:de:0a:27:c6:c9:62:1a:
         9f:2f:9e:65:49:82:0c:d8:9b:3c:9b:2e:9f:ff:f0:76:d8:c2:
         f3:9e:2e:56:e3:d2:b1:02:ba:c1:97:56:f5:28:e6:58:a8:31:
         c3:90:7a:dd:1f:93:cd:e6:d6:14:ea:ba:16:7b:03:de:86:c8:
         66:75:59:37:e6:3b:7d:8e:43:55:e3:5d:00:53:1d:a2:d7:3c:
         ad:b5:2c:78:55:cf:68:bf:b4:3d:c7:19:d0:10:01:8b:f4:67:
         3a:e6:20:31:12:dd:94:2b:8e:e7:6d:aa:e6:42:ae:bf:f4:26:
         c1:4b:0e:95:53:76:ba:96:84:55:4f:42:d4:96:2f:55:c1:ef:
         e8:bc:f9:c9:aa:fe:e5:69:b0:08:fd:67:f5:e9:a2:dd:28:81:
         e9:75:d9:d3
-----BEGIN CERTIFICATE-----
MIID2DCCAsCgAwIBAgIBAzANBgkqhkiG9w0BAQsFADBWMQswCQYDVQQGEwJDTjEV
MBMGA1UEBwwMRGVmYXVsdCBDaXR5MRwwGgYDVQQKDBNEZWZhdWx0IENvbXBhbnkg
THRkMRIwEAYDVQQDDAkxMjcuMC4wLjEwHhcNMjQwMzE5MDcwNTA5WhcNMzQwMzE3
MDcwNTA5WjAuMQswCQYDVQQGEwJDTjELMAkGA1UECgwCbGwxEjAQBgNVBAMMCTEy
Ny4wLjAuMTCCASIwDQYJKoZIhvcNAQEBBQADggEPADCCAQoCggEBANiULNrkwQWT
/KYPko3Qt+Y0USMlsSv2LPL8m9f3GYfTKzRcKwsLkkhxaeOJokHsBFM6tub9czE8
97+UT21WkXV6uaQISJ3kbBdrtaGlCXiZcMKGjEhZALvHst7aB8ehjkep1+2M/wc8
L+Jp9z+d+ooSAZ+yPC2emPIVR6evwpdlVaf4EeCuncayhMqoK+lIqs2uXpf13tqf
GND+1khSHvu3C/OjS8LX40tSplegPSzugd5EsBvu+qyhFzo0CqOk72DareTWxMYx
iRY2tC0GT1pSvAeJKwgWhdkEM9oFvli1FwP/FEj1H1hJabMz/lKUNh92jDWtj4oj
+1AjhRiXc9kCAwEAAaOB2DCB1TAJBgNVHRMEAjAAMCwGCWCGSAGG+EIBDQQfFh1P
cGVuU1NMIEdlbmVyYXRlZCBDZXJ0aWZpY2F0ZTAdBgNVHQ4EFgQUVAmpsUd/L1Ql
tttR4juAO86xdNkwewYDVR0jBHQwcqFapFgwVjELMAkGA1UEBhMCQ04xFTATBgNV
BAcMDERlZmF1bHQgQ2l0eTEcMBoGA1UECgwTRGVmYXVsdCBDb21wYW55IEx0ZDES
MBAGA1UEAwwJMTI3LjAuMC4xghRvSQ//QqLVEX1Px5wJWPch/kwHPDANBgkqhkiG
9w0BAQsFAAOCAQEAP5MfJu/1eY0lY32KBOYX+ZjUlScQfRoqjY+kIl9YTQX5o/y5
15IAb+GMYpB3vjpA8hp8wIw0tvFQXirx8Gj0fpuo5YT1AcpWYWEgfnWzUWsPaWvG
iRLr7HuJP/a+XVmza+W+J2PeCifGyWIany+eZUmCDNibPJsun//wdtjC854uVuPS
sQK6wZdW9SjmWKgxw5B63R+TzebWFOq6FnsD3obIZnVZN+Y7fY5DVeNdAFMdotc8
rbUseFXPaL+0PccZ0BABi/RnOuYgMRLdlCuO522q5kKuv/QmwUsOlVN2upaEVU9C
1JYvVcHv6Lz5yar+5WmwCP1n9emi3SiB6XXZ0w==
-----END CERTIFICATE-----
